(i__main__
Student
p0
(dp1
S'age'
p2
I26
sS'name'
p3
S'Sita'
p4
sb.(i__main__
Student
p0
(dp1
S'age'
p2
I26
sS'name'
p3
S'Sita'
p4
sb.(i__main__
Student
p0
(dp1
S'age'
p2
I26
sS'name'
p3
S'Sita'
p4
sb.(i__main__
Student
p0
(dp1
S'age'
p2
I26
sS'name'
p3
S'Sita'
p4
sb.(i__main__
Student
p0
(dp1
S'age'
p2
I26
sS'name'
p3
S'Sita'
p4
sb.(i__main__
Student
p0
(dp1
S'age'
p2
I26
sS'name'
p3
S'Sita'
p4
sb.(i__main__
Student
p0
(dp1
S'age'
p2
I26
sS'name'
p3
S'Sita'
p4
sb.(i__main__
Student
p0
(dp1
S'age'
p2
I26
sS'name'
p3
S'Sita'
p4
sb.(i__main__
Student
p0
(dp1
S'age'
p2
I26
sS'name'
p3
S'Sita'
p4
sb.